; ModuleID = '3/2754.c'
source_filename = "3/2754.c"
target datalayout = "e-m:e-p270:32:32-p271:32:32-p272:64:64-i64:64-f80:128-n8:16:32:64-S128"
target triple = "x86_64-pc-linux-gnu"

@.str = private unnamed_addr constant [5 x i8] c"%d%d\00", align 1
@.str.1 = private unnamed_addr constant [3 x i8] c"%d\00", align 1
@.str.2 = private unnamed_addr constant [4 x i8] c"yes\00", align 1
@.str.3 = private unnamed_addr constant [3 x i8] c"no\00", align 1

; Function Attrs: noinline nounwind uwtable
define dso_local i32 @main() #0 {
  %1 = alloca i32, align 4
  %2 = alloca i32, align 4
  %3 = alloca [1000 x i32], align 16
  %4 = alloca i32, align 4
  %5 = alloca i32, align 4
  %6 = alloca [1000 x i32], align 16
  %7 = alloca i32, align 4
  %8 = alloca i32, align 4
  %9 = alloca i32, align 4
  %10 = alloca i32, align 4
  %11 = alloca i32, align 4
  %12 = alloca i32, align 4
  store i32 0, i32* %1, align 4
  store i32 0, i32* %7, align 4
  %13 = call i32 (i8*, ...) @__isoc99_scanf(i8* getelementptr inbounds ([5 x i8], [5 x i8]* @.str, i64 0, i64 0), i32* %2, i32* %4)
  store i32 0, i32* %11, align 4
  br label %14

14:                                               ; preds = %23, %0
  %15 = load i32, i32* %11, align 4
  %16 = load i32, i32* %2, align 4
  %17 = icmp slt i32 %15, %16
  br i1 %17, label %18, label %26

18:                                               ; preds = %14
  %19 = load i32, i32* %11, align 4
  %20 = sext i32 %19 to i64
  %21 = getelementptr inbounds [1000 x i32], [1000 x i32]* %3, i64 0, i64 %20
  %22 = call i32 (i8*, ...) @__isoc99_scanf(i8* getelementptr inbounds ([3 x i8], [3 x i8]* @.str.1, i64 0, i64 0), i32* %21)
  br label %23

23:                                               ; preds = %18
  %24 = load i32, i32* %11, align 4
  %25 = add nsw i32 %24, 1
  store i32 %25, i32* %11, align 4
  br label %14

26:                                               ; preds = %14
  store i32 1, i32* %12, align 4
  br label %27

27:                                               ; preds = %72, %26
  %28 = load i32, i32* %12, align 4
  %29 = load i32, i32* %2, align 4
  %30 = icmp sle i32 %28, %29
  br i1 %30, label %31, label %75

31:                                               ; preds = %27
  store i32 0, i32* %11, align 4
  br label %32

32:                                               ; preds = %68, %31
  %33 = load i32, i32* %11, align 4
  %34 = load i32, i32* %2, align 4
  %35 = load i32, i32* %12, align 4
  %36 = sub nsw i32 %34, %35
  %37 = icmp slt i32 %33, %36
  br i1 %37, label %38, label %71

38:                                               ; preds = %32
  %39 = load i32, i32* %11, align 4
  %40 = sext i32 %39 to i64
  %41 = getelementptr inbounds [1000 x i32], [1000 x i32]* %3, i64 0, i64 %40
  %42 = load i32, i32* %41, align 4
  %43 = load i32, i32* %11, align 4
  %44 = add nsw i32 %43, 1
  %45 = sext i32 %44 to i64
  %46 = getelementptr inbounds [1000 x i32], [1000 x i32]* %3, i64 0, i64 %45
  %47 = load i32, i32* %46, align 4
  %48 = icmp sgt i32 %42, %47
  br i1 %48, label %49, label %67

49:                                               ; preds = %38
  %50 = load i32, i32* %11, align 4
  %51 = add nsw i32 %50, 1
  %52 = sext i32 %51 to i64
  %53 = getelementptr inbounds [1000 x i32], [1000 x i32]* %3, i64 0, i64 %52
  %54 = load i32, i32* %53, align 4
  store i32 %54, i32* %10, align 4
  %55 = load i32, i32* %11, align 4
  %56 = sext i32 %55 to i64
  %57 = getelementptr inbounds [1000 x i32], [1000 x i32]* %3, i64 0, i64 %56
  %58 = load i32, i32* %57, align 4
  %59 = load i32, i32* %11, align 4
  %60 = add nsw i32 %59, 1
  %61 = sext i32 %60 to i64
  %62 = getelementptr inbounds [1000 x i32], [1000 x i32]* %3, i64 0, i64 %61
  store i32 %58, i32* %62, align 4
  %63 = load i32, i32* %10, align 4
  %64 = load i32, i32* %11, align 4
  %65 = sext i32 %64 to i64
  %66 = getelementptr inbounds [1000 x i32], [1000 x i32]* %3, i64 0, i64 %65
  store i32 %63, i32* %66, align 4
  br label %67

67:                                               ; preds = %49, %38
  br label %68

68:                                               ; preds = %67
  %69 = load i32, i32* %11, align 4
  %70 = add nsw i32 %69, 1
  store i32 %70, i32* %11, align 4
  br label %32

71:                                               ; preds = %32
  br label %72

72:                                               ; preds = %71
  %73 = load i32, i32* %12, align 4
  %74 = add nsw i32 %73, 1
  store i32 %74, i32* %12, align 4
  br label %27

75:                                               ; preds = %27
  store i32 0, i32* %11, align 4
  br label %76

76:                                               ; preds = %89, %75
  %77 = load i32, i32* %11, align 4
  %78 = load i32, i32* %2, align 4
  %79 = icmp slt i32 %77, %78
  br i1 %79, label %80, label %92

80:                                               ; preds = %76
  %81 = load i32, i32* %11, align 4
  store i32 %81, i32* %9, align 4
  %82 = load i32, i32* %11, align 4
  %83 = sext i32 %82 to i64
  %84 = getelementptr inbounds [1000 x i32], [1000 x i32]* %3, i64 0, i64 %83
  %85 = load i32, i32* %84, align 4
  %86 = load i32, i32* %9, align 4
  %87 = sext i32 %86 to i64
  %88 = getelementptr inbounds [1000 x i32], [1000 x i32]* %6, i64 0, i64 %87
  store i32 %85, i32* %88, align 4
  br label %89

89:                                               ; preds = %80
  %90 = load i32, i32* %11, align 4
  %91 = add nsw i32 %90, 1
  store i32 %91, i32* %11, align 4
  br label %76

92:                                               ; preds = %76
  store i32 0, i32* %11, align 4
  br label %93

93:                                               ; preds = %133, %92
  %94 = load i32, i32* %11, align 4
  %95 = load i32, i32* %2, align 4
  %96 = icmp slt i32 %94, %95
  br i1 %96, label %97, label %136

97:                                               ; preds = %93
  %98 = load i32, i32* %4, align 4
  %99 = load i32, i32* %11, align 4
  %100 = sext i32 %99 to i64
  %101 = getelementptr inbounds [1000 x i32], [1000 x i32]* %3, i64 0, i64 %100
  %102 = load i32, i32* %101, align 4
  %103 = sub nsw i32 %98, %102
  store i32 %103, i32* %5, align 4
  store i32 0, i32* %8, align 4
  store i32 0, i32* %9, align 4
  br label %104

104:                                              ; preds = %123, %97
  %105 = load i32, i32* %9, align 4
  %106 = load i32, i32* %2, align 4
  %107 = icmp slt i32 %105, %106
  br i1 %107, label %108, label %126

108:                                              ; preds = %104
  %109 = load i32, i32* %9, align 4
  %110 = load i32, i32* %11, align 4
  %111 = icmp ne i32 %109, %110
  br i1 %111, label %112, label %122

112:                                              ; preds = %108
  %113 = load i32, i32* %5, align 4
  %114 = load i32, i32* %9, align 4
  %115 = sext i32 %114 to i64
  %116 = getelementptr inbounds [1000 x i32], [1000 x i32]* %6, i64 0, i64 %115
  %117 = load i32, i32* %116, align 4
  %118 = icmp eq i32 %113, %117
  br i1 %118, label %119, label %122

119:                                              ; preds = %112
  %120 = load i32, i32* %8, align 4
  %121 = add nsw i32 %120, 1
  store i32 %121, i32* %8, align 4
  br label %122

122:                                              ; preds = %119, %112, %108
  br label %123

123:                                              ; preds = %122
  %124 = load i32, i32* %9, align 4
  %125 = add nsw i32 %124, 1
  store i32 %125, i32* %9, align 4
  br label %104

126:                                              ; preds = %104
  %127 = load i32, i32* %8, align 4
  %128 = icmp sgt i32 %127, 0
  br i1 %128, label %129, label %132

129:                                              ; preds = %126
  %130 = load i32, i32* %7, align 4
  %131 = add nsw i32 %130, 1
  store i32 %131, i32* %7, align 4
  br label %132

132:                                              ; preds = %129, %126
  br label %133

133:                                              ; preds = %132
  %134 = load i32, i32* %11, align 4
  %135 = add nsw i32 %134, 1
  store i32 %135, i32* %11, align 4
  br label %93

136:                                              ; preds = %93
  %137 = load i32, i32* %7, align 4
  %138 = icmp sgt i32 %137, 0
  br i1 %138, label %139, label %141

139:                                              ; preds = %136
  %140 = call i32 (i8*, ...) @printf(i8* getelementptr inbounds ([4 x i8], [4 x i8]* @.str.2, i64 0, i64 0))
  br label %143

141:                                              ; preds = %136
  %142 = call i32 (i8*, ...) @printf(i8* getelementptr inbounds ([3 x i8], [3 x i8]* @.str.3, i64 0, i64 0))
  br label %143

143:                                              ; preds = %141, %139
  ret i32 0
}

declare dso_local i32 @__isoc99_scanf(i8*, ...) #1

declare dso_local i32 @printf(i8*, ...) #1


!llvm.module.flags = !{!0}
!llvm.ident = !{!1}

!0 = !{i32 1, !"wchar_size", i32 4}
!1 = !{!"clang version 10.0.0-4ubuntu1 "}
